; Function Attrs: mustprogress uwtable
define hidden void @_ZN2cv8ximgproc20FastLineDetectorImplC2Eifddib(ptr noundef nonnull align 8 dereferenceable(45) %0, i32 noundef %1, float noundef %2, double noundef %3, double noundef %4, i32 noundef %5, i1 noundef zeroext %6) unnamed_addr #3 align 2 personality ptr @__gxx_personality_v0 {
  %8 = alloca %"class.std::__cxx11::basic_string", align 8
  %9 = alloca %"class.std::allocator", align 1
  %10 = zext i1 %6 to i8
  tail call void @_ZN2cv9AlgorithmC2Ev(ptr noundef nonnull align 8 dereferenceable(8) %0)
  store ptr getelementptr inbounds nuw inrange(-16, 80) (i8, ptr @_ZTVN2cv8ximgproc20FastLineDetectorImplE, i64 16), ptr %0, align 8, !tbaa !14
  %11 = getelementptr inbounds nuw i8, ptr %0, i64 16
  store i32 %1, ptr %11, align 8, !tbaa !23
  %12 = getelementptr inbounds nuw i8, ptr %0, i64 20
  store float %2, ptr %12, align 4, !tbaa !30
  %13 = getelementptr inbounds nuw i8, ptr %0, i64 24
  store double %3, ptr %13, align 8, !tbaa !31
  %14 = getelementptr inbounds nuw i8, ptr %0, i64 32
  store double %4, ptr %14, align 8, !tbaa !32
  %15 = getelementptr inbounds nuw i8, ptr %0, i64 40
  store i32 %5, ptr %15, align 8, !tbaa !33
  %16 = getelementptr inbounds nuw i8, ptr %0, i64 44
  store i8 %10, ptr %16, align 4, !tbaa !34
  %17 = icmp sgt i32 %1, 0
  %18 = fcmp ogt float %2, 0.000000e+00
  %or.cond = and i1 %17, %18
  %19 = fcmp ogt double %3, 0.000000e+00
  %or.cond3 = and i1 %or.cond, %19
  %20 = fcmp ogt double %4, 0.000000e+00
  %or.cond5 = and i1 %or.cond3, %20
  %21 = icmp sgt i32 %5, -1
  %or.cond7 = and i1 %or.cond5, %21
  br i1 %or.cond7, label %35, label %22

22:                                               ; preds = %7
  call void @llvm.lifetime.start.p0(i64 32, ptr nonnull %8) #28
  call void @llvm.lifetime.start.p0(i64 1, ptr nonnull %9) #28
  invoke void @_ZNSt7__cxx1112basic_stringIcSt11char_traitsIcESaIcEEC2EPKcRKS3_(ptr noundef nonnull align 8 dereferenceable(32) %8, ptr noundef nonnull @.str, ptr noundef nonnull align 1 dereferenceable(1) %9)
          to label %23 unwind label %25

23:                                               ; preds = %22
  invoke void @_ZN2cv5errorEiRKNSt7__cxx1112basic_stringIcSt11char_traitsIcESaIcEEEPKcS9_i(i32 noundef -215, ptr noundef nonnull align 8 dereferenceable(32) %8, ptr noundef nonnull @__func__._ZN2cv8ximgproc20FastLineDetectorImplC2Eifddib, ptr noundef nonnull @.str.1, i32 noundef 84) #29
          to label %24 unwind label %27

24:                                               ; preds = %23
  unreachable

25:                                               ; preds = %22
  %26 = landingpad { ptr, i32 }
          cleanup
  br label %_ZNSt7__cxx1112basic_stringIcSt11char_traitsIcESaIcEED2Ev.exit

27:                                               ; preds = %23
  %28 = landingpad { ptr, i32 }
          cleanup
  %29 = load ptr, ptr %8, align 8, !tbaa !35
  %30 = getelementptr inbounds nuw i8, ptr %8, i64 16
  %31 = icmp eq ptr %29, %30
  br i1 %31, label %_ZNKSt7__cxx1112basic_stringIcSt11char_traitsIcESaIcEE11_M_is_localEv.exit.thread.i.i, label %_ZNKSt7__cxx1112basic_stringIcSt11char_traitsIcESaIcEE11_M_is_localEv.exit.i.i

_ZNKSt7__cxx1112basic_stringIcSt11char_traitsIcESaIcEE11_M_is_localEv.exit.thread.i.i: ; preds = %27
  %32 = getelementptr inbounds nuw i8, ptr %8, i64 8
  %33 = load i64, ptr %32, align 8, !tbaa !40
  %34 = icmp ult i64 %33, 16
  call void @llvm.assume(i1 %34)
  br label %_ZNSt7__cxx1112basic_stringIcSt11char_traitsIcESaIcEED2Ev.exit

_ZNKSt7__cxx1112basic_stringIcSt11char_traitsIcESaIcEE11_M_is_localEv.exit.i.i: ; preds = %27
  call void @_ZdlPv(ptr noundef %29) #27
  br label %_ZNSt7__cxx1112basic_stringIcSt11char_traitsIcESaIcEED2Ev.exit

_ZNSt7__cxx1112basic_stringIcSt11char_traitsIcESaIcEED2Ev.exit: ; preds = %_ZNKSt7__cxx1112basic_stringIcSt11char_traitsIcESaIcEE11_M_is_localEv.exit.i.i, %_ZNKSt7__cxx1112basic_stringIcSt11char_traitsIcESaIcEE11_M_is_localEv.exit.thread.i.i, %25
  %.pn = phi { ptr, i32 } [ %26, %25 ], [ %28, %_ZNKSt7__cxx1112basic_stringIcSt11char_traitsIcESaIcEE11_M_is_localEv.exit.thread.i.i ], [ %28, %_ZNKSt7__cxx1112basic_stringIcSt11char_traitsIcESaIcEE11_M_is_localEv.exit.i.i ]
  call void @llvm.lifetime.end.p0(i64 1, ptr nonnull %9) #28
  call void @llvm.lifetime.end.p0(i64 32, ptr nonnull %8) #28
  call void @_ZN2cv9AlgorithmD2Ev(ptr noundef nonnull align 8 dereferenceable(8) %0) #28
  resume { ptr, i32 } %.pn

35:                                               ; preds = %7
  ret void
}